; Function Attrs: mustprogress uwtable
define hidden void @_ZN5zxing6qrcode22AlignmentPatternFinderC2ENS_3RefINS_9BitMatrixEEEf(ptr nocapture noundef nonnull align 8 dereferenceable(52) %0, ptr nocapture noundef readonly %1, float noundef %2) unnamed_addr #0 align 2 personality ptr @__gxx_personality_v0 {
  %4 = getelementptr inbounds i8, ptr %0, i64 8
  store i32 0, ptr %4, align 8
  store ptr getelementptr inbounds inrange(-16, 16) (i8, ptr @_ZTVN5zxing6qrcode22AlignmentPatternFinderE, i64 16), ptr %0, align 8
  %5 = getelementptr inbounds i8, ptr %0, i64 16
  store ptr null, ptr %5, align 8
  %6 = load ptr, ptr %1, align 8
  %.not.i.i = icmp eq ptr %6, null
  br i1 %.not.i.i, label %20, label %7

7:                                                ; preds = %3
  %8 = getelementptr inbounds i8, ptr %6, i64 8
  %9 = load i32, ptr %8, align 8
  %10 = add i32 %9, 1
  store i32 %10, ptr %8, align 8
  %.pr.i = load ptr, ptr %5, align 8
  %.not5.i.i = icmp eq ptr %.pr.i, null
  br i1 %.not5.i.i, label %20, label %11

11:                                               ; preds = %7
  %12 = getelementptr inbounds i8, ptr %.pr.i, i64 8
  %13 = load i32, ptr %12, align 8
  %14 = add i32 %13, -1
  store i32 %14, ptr %12, align 8
  %15 = icmp eq i32 %14, 0
  br i1 %15, label %16, label %20

16:                                               ; preds = %11
  store i32 -559026175, ptr %12, align 8
  %17 = load ptr, ptr %.pr.i, align 8
  %18 = getelementptr inbounds i8, ptr %17, i64 8
  %19 = load ptr, ptr %18, align 8
  tail call void %19(ptr noundef nonnull align 8 dereferenceable(12) %.pr.i) #12
  br label %20

20:                                               ; preds = %16, %11, %7, %3
  store ptr %6, ptr %5, align 8
  %21 = getelementptr inbounds i8, ptr %0, i64 48
  store float %2, ptr %21, align 8
  ret void
}